target datalayout = "e-m:e-p270:32:32-p271:32:32-p272:64:64-i64:64-i128:128-f80:128-n8:16:32:64-S128"
target triple = "x86_64-pc-linux-gnu"

%"struct.Luau::CodeGen::X64::RegisterX64" = type { i8 }
%"struct.Luau::CodeGen::X64::OperandX64" = type { i8, %"struct.Luau::CodeGen::X64::RegisterX64", %"struct.Luau::CodeGen::X64::RegisterX64", i8, i32 }

@.str.63 = private unnamed_addr constant [10 x i8] c"vcvtsi2sd\00", align 1

; Function Attrs: mustprogress uwtable
define dso_local void @_ZN4Luau7CodeGen3X6418AssemblyBuilderX649vcvtsi2sdENS1_10OperandX64ES3_S3_(ptr noundef nonnull align 8 dereferenceable(252) %0, i64 %1, i64 %2, i64 %3) #0 align 2 {
  %5 = alloca %"struct.Luau::CodeGen::X64::OperandX64", align 4
  %6 = alloca %"struct.Luau::CodeGen::X64::OperandX64", align 4
  %7 = alloca %"struct.Luau::CodeGen::X64::OperandX64", align 4
  %8 = alloca ptr, align 8
  %9 = alloca %"struct.Luau::CodeGen::X64::OperandX64", align 4
  %10 = alloca %"struct.Luau::CodeGen::X64::OperandX64", align 4
  %11 = alloca %"struct.Luau::CodeGen::X64::OperandX64", align 4
  store i64 %1, ptr %5, align 4
  store i64 %2, ptr %6, align 4
  store i64 %3, ptr %7, align 4
  store ptr %0, ptr %8, align 8, !tbaa !4
  %12 = load ptr, ptr %8, align 8
  call void @llvm.memcpy.p0.p0.i64(ptr align 4 %9, ptr align 4 %5, i64 8, i1 false), !tbaa.struct !76
  call void @llvm.memcpy.p0.p0.i64(ptr align 4 %10, ptr align 4 %6, i64 8, i1 false), !tbaa.struct !76
  call void @llvm.memcpy.p0.p0.i64(ptr align 4 %11, ptr align 4 %7, i64 8, i1 false), !tbaa.struct !76
  %13 = getelementptr inbounds nuw %"struct.Luau::CodeGen::X64::OperandX64", ptr %7, i32 0, i32 0
  %14 = load i8, ptr %13, align 4, !tbaa !81
  %15 = icmp eq i8 %14, 0
  br i1 %15, label %16, label %20

16:                                               ; preds = %4
  %17 = getelementptr inbounds nuw %"struct.Luau::CodeGen::X64::OperandX64", ptr %7, i32 0, i32 2
  %18 = load i8, ptr %17, align 2
  %19 = and i8 %18, 7
  br label %24

20:                                               ; preds = %4
  %21 = getelementptr inbounds nuw %"struct.Luau::CodeGen::X64::OperandX64", ptr %7, i32 0, i32 3
  %22 = load i8, ptr %21, align 1
  %23 = and i8 %22, 15
  br label %24

24:                                               ; preds = %20, %16
  %25 = phi i8 [ %19, %16 ], [ %23, %20 ]
  %26 = icmp eq i8 %25, 4
  %27 = load i64, ptr %9, align 4
  %28 = load i64, ptr %10, align 4
  %29 = load i64, ptr %11, align 4
  call void @_ZN4Luau7CodeGen3X6418AssemblyBuilderX648placeAvxEPKcNS1_10OperandX64ES5_S5_hbhh(ptr noundef nonnull align 8 dereferenceable(252) %12, ptr noundef @.str.63, i64 %27, i64 %28, i64 %29, i8 noundef zeroext 42, i1 noundef zeroext %26, i8 noundef zeroext 1, i8 noundef zeroext 3)
  ret void
}